target datalayout = "e-m:e-p270:32:32-p271:32:32-p272:64:64-i64:64-i128:128-f80:128-n8:16:32:64-S128"
target triple = "x86_64-pc-linux-gnu"

%struct.ssl_aead_ctx_st = type { ptr, %struct.evp_aead_ctx_st, [12 x i8], i8, i8, i8, i8, i8, i8, i8 }
%struct.evp_aead_ctx_st = type { ptr, ptr }

@.str = private unnamed_addr constant [122 x i8] c"generated/home/dtcxzyw/WorkSpace/Projects/compilers/llvm-opt-benchmark/bench/libquic/libquic/boringssl/ssl/ssl_aead_ctx.c\00", align 1

; Function Attrs: nounwind uwtable
define internal i64 @ssl_aead_ctx_get_ad(ptr noundef %0, ptr noundef %1, i8 noundef zeroext %2, i16 noundef zeroext %3, ptr noundef %4, i64 noundef %5) #0 {
  %7 = alloca ptr, align 8
  %8 = alloca ptr, align 8
  %9 = alloca i8, align 1
  %10 = alloca i16, align 2
  %11 = alloca ptr, align 8
  %12 = alloca i64, align 8
  %13 = alloca i64, align 8
  store ptr %0, ptr %7, align 8, !tbaa !19
  store ptr %1, ptr %8, align 8, !tbaa !15
  store i8 %2, ptr %9, align 1, !tbaa !38
  store i16 %3, ptr %10, align 2, !tbaa !10
  store ptr %4, ptr %11, align 8, !tbaa !15
  store i64 %5, ptr %12, align 8, !tbaa !17
  %14 = load ptr, ptr %8, align 8, !tbaa !15
  %15 = load ptr, ptr %11, align 8, !tbaa !15
  call void @llvm.memcpy.p0.p0.i64(ptr align 1 %14, ptr align 1 %15, i64 8, i1 false)
  call void @llvm.lifetime.start.p0(i64 8, ptr %13) #7
  store i64 8, ptr %13, align 8, !tbaa !17
  %16 = load i8, ptr %9, align 1, !tbaa !38
  %17 = load ptr, ptr %8, align 8, !tbaa !15
  %18 = load i64, ptr %13, align 8, !tbaa !17
  %19 = add i64 %18, 1
  store i64 %19, ptr %13, align 8, !tbaa !17
  %20 = getelementptr inbounds nuw i8, ptr %17, i64 %18
  store i8 %16, ptr %20, align 1, !tbaa !38
  %21 = load ptr, ptr %7, align 8, !tbaa !19
  %22 = getelementptr inbounds nuw %struct.ssl_aead_ctx_st, ptr %21, i32 0, i32 8
  %23 = load i8, ptr %22, align 1, !tbaa !34
  %24 = icmp ne i8 %23, 0
  br i1 %24, label %40, label %25

25:                                               ; preds = %6
  %26 = load i16, ptr %10, align 2, !tbaa !10
  %27 = zext i16 %26 to i32
  %28 = ashr i32 %27, 8
  %29 = trunc i32 %28 to i8
  %30 = load ptr, ptr %8, align 8, !tbaa !15
  %31 = load i64, ptr %13, align 8, !tbaa !17
  %32 = add i64 %31, 1
  store i64 %32, ptr %13, align 8, !tbaa !17
  %33 = getelementptr inbounds nuw i8, ptr %30, i64 %31
  store i8 %29, ptr %33, align 1, !tbaa !38
  %34 = load i16, ptr %10, align 2, !tbaa !10
  %35 = trunc i16 %34 to i8
  %36 = load ptr, ptr %8, align 8, !tbaa !15
  %37 = load i64, ptr %13, align 8, !tbaa !17
  %38 = add i64 %37, 1
  store i64 %38, ptr %13, align 8, !tbaa !17
  %39 = getelementptr inbounds nuw i8, ptr %36, i64 %37
  store i8 %35, ptr %39, align 1, !tbaa !38
  br label %40

40:                                               ; preds = %25, %6
  %41 = load ptr, ptr %7, align 8, !tbaa !19
  %42 = getelementptr inbounds nuw %struct.ssl_aead_ctx_st, ptr %41, i32 0, i32 7
  %43 = load i8, ptr %42, align 8, !tbaa !33
  %44 = icmp ne i8 %43, 0
  br i1 %44, label %59, label %45

45:                                               ; preds = %40
  %46 = load i64, ptr %12, align 8, !tbaa !17
  %47 = lshr i64 %46, 8
  %48 = trunc i64 %47 to i8
  %49 = load ptr, ptr %8, align 8, !tbaa !15
  %50 = load i64, ptr %13, align 8, !tbaa !17
  %51 = add i64 %50, 1
  store i64 %51, ptr %13, align 8, !tbaa !17
  %52 = getelementptr inbounds nuw i8, ptr %49, i64 %50
  store i8 %48, ptr %52, align 1, !tbaa !38
  %53 = load i64, ptr %12, align 8, !tbaa !17
  %54 = trunc i64 %53 to i8
  %55 = load ptr, ptr %8, align 8, !tbaa !15
  %56 = load i64, ptr %13, align 8, !tbaa !17
  %57 = add i64 %56, 1
  store i64 %57, ptr %13, align 8, !tbaa !17
  %58 = getelementptr inbounds nuw i8, ptr %55, i64 %56
  store i8 %54, ptr %58, align 1, !tbaa !38
  br label %59

59:                                               ; preds = %45, %40
  %60 = load i64, ptr %13, align 8, !tbaa !17
  call void @llvm.lifetime.end.p0(i64 8, ptr %13) #7
  ret i64 %60
}

; Function Attrs: nounwind uwtable
define hidden i32 @SSL_AEAD_CTX_seal(ptr noundef %0, ptr noundef %1, ptr noundef %2, i64 noundef %3, i8 noundef zeroext %4, i16 noundef zeroext %5, ptr noundef %6, ptr noundef %7, i64 noundef %8) #0 {
  %10 = alloca i32, align 4
  %11 = alloca ptr, align 8
  %12 = alloca ptr, align 8
  %13 = alloca ptr, align 8
  %14 = alloca i64, align 8
  %15 = alloca i8, align 1
  %16 = alloca i16, align 2
  %17 = alloca ptr, align 8
  %18 = alloca ptr, align 8
  %19 = alloca i64, align 8
  %20 = alloca [13 x i8], align 1
  %21 = alloca i64, align 8
  %22 = alloca [16 x i8], align 16
  %23 = alloca i64, align 8
  %24 = alloca i32, align 4
  %25 = alloca i64, align 8
  %26 = alloca i64, align 8
  store ptr %0, ptr %11, align 8, !tbaa !19
  store ptr %1, ptr %12, align 8, !tbaa !15
  store ptr %2, ptr %13, align 8, !tbaa !36
  store i64 %3, ptr %14, align 8, !tbaa !17
  store i8 %4, ptr %15, align 1, !tbaa !38
  store i16 %5, ptr %16, align 2, !tbaa !10
  store ptr %6, ptr %17, align 8, !tbaa !15
  store ptr %7, ptr %18, align 8, !tbaa !15
  store i64 %8, ptr %19, align 8, !tbaa !17
  %27 = load ptr, ptr %11, align 8, !tbaa !19
  %28 = icmp eq ptr %27, null
  br i1 %28, label %29, label %40

29:                                               ; preds = %9
  %30 = load i64, ptr %19, align 8, !tbaa !17
  %31 = load i64, ptr %14, align 8, !tbaa !17
  %32 = icmp ugt i64 %30, %31
  br i1 %32, label %33, label %34

33:                                               ; preds = %29
  call void @ERR_put_error(i32 noundef 16, i32 noundef 0, i32 noundef 121, ptr noundef @.str, i32 noundef 244)
  store i32 0, ptr %10, align 4
  br label %224

34:                                               ; preds = %29
  %35 = load ptr, ptr %12, align 8, !tbaa !15
  %36 = load ptr, ptr %18, align 8, !tbaa !15
  %37 = load i64, ptr %19, align 8, !tbaa !17
  call void @llvm.memmove.p0.p0.i64(ptr align 1 %35, ptr align 1 %36, i64 %37, i1 false)
  %38 = load i64, ptr %19, align 8, !tbaa !17
  %39 = load ptr, ptr %13, align 8, !tbaa !36
  store i64 %38, ptr %39, align 8, !tbaa !17
  store i32 1, ptr %10, align 4
  br label %224

40:                                               ; preds = %9
  call void @llvm.lifetime.start.p0(i64 13, ptr %20) #7
  call void @llvm.lifetime.start.p0(i64 8, ptr %21) #7
  %41 = load ptr, ptr %11, align 8, !tbaa !19
  %42 = getelementptr inbounds [13 x i8], ptr %20, i64 0, i64 0
  %43 = load i8, ptr %15, align 1, !tbaa !38
  %44 = load i16, ptr %16, align 2, !tbaa !10
  %45 = load ptr, ptr %17, align 8, !tbaa !15
  %46 = load i64, ptr %19, align 8, !tbaa !17
  %47 = call i64 @ssl_aead_ctx_get_ad(ptr noundef %41, ptr noundef %42, i8 noundef zeroext %43, i16 noundef zeroext %44, ptr noundef %45, i64 noundef %46)
  store i64 %47, ptr %21, align 8, !tbaa !17
  call void @llvm.lifetime.start.p0(i64 16, ptr %22) #7
  call void @llvm.lifetime.start.p0(i64 8, ptr %23) #7
  store i64 0, ptr %23, align 8, !tbaa !17
  %48 = load ptr, ptr %11, align 8, !tbaa !19
  %49 = getelementptr inbounds nuw %struct.ssl_aead_ctx_st, ptr %48, i32 0, i32 9
  %50 = load i8, ptr %49, align 2, !tbaa !30
  %51 = icmp ne i8 %50, 0
  br i1 %51, label %52, label %65

52:                                               ; preds = %40
  %53 = load ptr, ptr %11, align 8, !tbaa !19
  %54 = getelementptr inbounds nuw %struct.ssl_aead_ctx_st, ptr %53, i32 0, i32 3
  %55 = load i8, ptr %54, align 4, !tbaa !27
  %56 = zext i8 %55 to i32
  %57 = load ptr, ptr %11, align 8, !tbaa !19
  %58 = getelementptr inbounds nuw %struct.ssl_aead_ctx_st, ptr %57, i32 0, i32 4
  %59 = load i8, ptr %58, align 1, !tbaa !26
  %60 = zext i8 %59 to i32
  %61 = sub nsw i32 %56, %60
  %62 = sext i32 %61 to i64
  store i64 %62, ptr %23, align 8, !tbaa !17
  %63 = getelementptr inbounds [16 x i8], ptr %22, i64 0, i64 0
  %64 = load i64, ptr %23, align 8, !tbaa !17
  call void @llvm.memset.p0.i64(ptr align 16 %63, i8 0, i64 %64, i1 false)
  br label %80

65:                                               ; preds = %40
  %66 = getelementptr inbounds [16 x i8], ptr %22, i64 0, i64 0
  %67 = load ptr, ptr %11, align 8, !tbaa !19
  %68 = getelementptr inbounds nuw %struct.ssl_aead_ctx_st, ptr %67, i32 0, i32 2
  %69 = getelementptr inbounds [12 x i8], ptr %68, i64 0, i64 0
  %70 = load ptr, ptr %11, align 8, !tbaa !19
  %71 = getelementptr inbounds nuw %struct.ssl_aead_ctx_st, ptr %70, i32 0, i32 3
  %72 = load i8, ptr %71, align 4, !tbaa !27
  %73 = zext i8 %72 to i64
  call void @llvm.memcpy.p0.p0.i64(ptr align 16 %66, ptr align 8 %69, i64 %73, i1 false)
  %74 = load ptr, ptr %11, align 8, !tbaa !19
  %75 = getelementptr inbounds nuw %struct.ssl_aead_ctx_st, ptr %74, i32 0, i32 3
  %76 = load i8, ptr %75, align 4, !tbaa !27
  %77 = zext i8 %76 to i64
  %78 = load i64, ptr %23, align 8, !tbaa !17
  %79 = add i64 %78, %77
  store i64 %79, ptr %23, align 8, !tbaa !17
  br label %80

80:                                               ; preds = %65, %52
  %81 = load ptr, ptr %11, align 8, !tbaa !19
  %82 = getelementptr inbounds nuw %struct.ssl_aead_ctx_st, ptr %81, i32 0, i32 6
  %83 = load i8, ptr %82, align 1, !tbaa !32
  %84 = icmp ne i8 %83, 0
  br i1 %84, label %85, label %97

85:                                               ; preds = %80
  %86 = getelementptr inbounds [16 x i8], ptr %22, i64 0, i64 0
  %87 = load i64, ptr %23, align 8, !tbaa !17
  %88 = getelementptr inbounds nuw i8, ptr %86, i64 %87
  %89 = load ptr, ptr %11, align 8, !tbaa !19
  %90 = getelementptr inbounds nuw %struct.ssl_aead_ctx_st, ptr %89, i32 0, i32 4
  %91 = load i8, ptr %90, align 1, !tbaa !26
  %92 = zext i8 %91 to i64
  %93 = call i32 @RAND_bytes(ptr noundef %88, i64 noundef %92)
  %94 = icmp ne i32 %93, 0
  br i1 %94, label %96, label %95

95:                                               ; preds = %85
  store i32 0, ptr %10, align 4
  store i32 1, ptr %24, align 4
  br label %223

96:                                               ; preds = %85
  br label %106

97:                                               ; preds = %80
  %98 = getelementptr inbounds [16 x i8], ptr %22, i64 0, i64 0
  %99 = load i64, ptr %23, align 8, !tbaa !17
  %100 = getelementptr inbounds nuw i8, ptr %98, i64 %99
  %101 = load ptr, ptr %17, align 8, !tbaa !15
  %102 = load ptr, ptr %11, align 8, !tbaa !19
  %103 = getelementptr inbounds nuw %struct.ssl_aead_ctx_st, ptr %102, i32 0, i32 4
  %104 = load i8, ptr %103, align 1, !tbaa !26
  %105 = zext i8 %104 to i64
  call void @llvm.memcpy.p0.p0.i64(ptr align 1 %100, ptr align 1 %101, i64 %105, i1 false)
  br label %106

106:                                              ; preds = %97, %96
  %107 = load ptr, ptr %11, align 8, !tbaa !19
  %108 = getelementptr inbounds nuw %struct.ssl_aead_ctx_st, ptr %107, i32 0, i32 4
  %109 = load i8, ptr %108, align 1, !tbaa !26
  %110 = zext i8 %109 to i64
  %111 = load i64, ptr %23, align 8, !tbaa !17
  %112 = add i64 %111, %110
  store i64 %112, ptr %23, align 8, !tbaa !17
  call void @llvm.lifetime.start.p0(i64 8, ptr %25) #7
  store i64 0, ptr %25, align 8, !tbaa !17
  %113 = load ptr, ptr %11, align 8, !tbaa !19
  %114 = getelementptr inbounds nuw %struct.ssl_aead_ctx_st, ptr %113, i32 0, i32 5
  %115 = load i8, ptr %114, align 2, !tbaa !31
  %116 = icmp ne i8 %115, 0
  br i1 %116, label %117, label %172

117:                                              ; preds = %106
  %118 = load i64, ptr %14, align 8, !tbaa !17
  %119 = load ptr, ptr %11, align 8, !tbaa !19
  %120 = getelementptr inbounds nuw %struct.ssl_aead_ctx_st, ptr %119, i32 0, i32 4
  %121 = load i8, ptr %120, align 1, !tbaa !26
  %122 = zext i8 %121 to i64
  %123 = icmp ult i64 %118, %122
  br i1 %123, label %124, label %125

124:                                              ; preds = %117
  call void @ERR_put_error(i32 noundef 16, i32 noundef 0, i32 noundef 121, ptr noundef @.str, i32 noundef 288)
  store i32 0, ptr %10, align 4
  store i32 1, ptr %24, align 4
  br label %222

125:                                              ; preds = %117
  %126 = load ptr, ptr %12, align 8, !tbaa !15
  %127 = load ptr, ptr %18, align 8, !tbaa !15
  %128 = load i64, ptr %19, align 8, !tbaa !17
  %129 = getelementptr inbounds nuw i8, ptr %127, i64 %128
  %130 = icmp ult ptr %126, %129
  br i1 %130, label %131, label %142

131:                                              ; preds = %125
  %132 = load ptr, ptr %18, align 8, !tbaa !15
  %133 = load ptr, ptr %12, align 8, !tbaa !15
  %134 = load ptr, ptr %11, align 8, !tbaa !19
  %135 = getelementptr inbounds nuw %struct.ssl_aead_ctx_st, ptr %134, i32 0, i32 4
  %136 = load i8, ptr %135, align 1, !tbaa !26
  %137 = zext i8 %136 to i32
  %138 = sext i32 %137 to i64
  %139 = getelementptr inbounds i8, ptr %133, i64 %138
  %140 = icmp ult ptr %132, %139
  br i1 %140, label %141, label %142

141:                                              ; preds = %131
  call void @ERR_put_error(i32 noundef 16, i32 noundef 0, i32 noundef 189, ptr noundef @.str, i32 noundef 292)
  store i32 0, ptr %10, align 4
  store i32 1, ptr %24, align 4
  br label %222

142:                                              ; preds = %131, %125
  %143 = load ptr, ptr %12, align 8, !tbaa !15
  %144 = getelementptr inbounds [16 x i8], ptr %22, i64 0, i64 0
  %145 = load ptr, ptr %11, align 8, !tbaa !19
  %146 = getelementptr inbounds nuw %struct.ssl_aead_ctx_st, ptr %145, i32 0, i32 3
  %147 = load i8, ptr %146, align 4, !tbaa !27
  %148 = zext i8 %147 to i32
  %149 = sext i32 %148 to i64
  %150 = getelementptr inbounds i8, ptr %144, i64 %149
  %151 = load ptr, ptr %11, align 8, !tbaa !19
  %152 = getelementptr inbounds nuw %struct.ssl_aead_ctx_st, ptr %151, i32 0, i32 4
  %153 = load i8, ptr %152, align 1, !tbaa !26
  %154 = zext i8 %153 to i64
  call void @llvm.memcpy.p0.p0.i64(ptr align 1 %143, ptr align 1 %150, i64 %154, i1 false)
  %155 = load ptr, ptr %11, align 8, !tbaa !19
  %156 = getelementptr inbounds nuw %struct.ssl_aead_ctx_st, ptr %155, i32 0, i32 4
  %157 = load i8, ptr %156, align 1, !tbaa !26
  %158 = zext i8 %157 to i64
  store i64 %158, ptr %25, align 8, !tbaa !17
  %159 = load ptr, ptr %11, align 8, !tbaa !19
  %160 = getelementptr inbounds nuw %struct.ssl_aead_ctx_st, ptr %159, i32 0, i32 4
  %161 = load i8, ptr %160, align 1, !tbaa !26
  %162 = zext i8 %161 to i32
  %163 = load ptr, ptr %12, align 8, !tbaa !15
  %164 = sext i32 %162 to i64
  %165 = getelementptr inbounds i8, ptr %163, i64 %164
  store ptr %165, ptr %12, align 8, !tbaa !15
  %166 = load ptr, ptr %11, align 8, !tbaa !19
  %167 = getelementptr inbounds nuw %struct.ssl_aead_ctx_st, ptr %166, i32 0, i32 4
  %168 = load i8, ptr %167, align 1, !tbaa !26
  %169 = zext i8 %168 to i64
  %170 = load i64, ptr %14, align 8, !tbaa !17
  %171 = sub i64 %170, %169
  store i64 %171, ptr %14, align 8, !tbaa !17
  br label %172

172:                                              ; preds = %142, %106
  %173 = load ptr, ptr %11, align 8, !tbaa !19
  %174 = getelementptr inbounds nuw %struct.ssl_aead_ctx_st, ptr %173, i32 0, i32 9
  %175 = load i8, ptr %174, align 2, !tbaa !30
  %176 = icmp ne i8 %175, 0
  br i1 %176, label %177, label %202

177:                                              ; preds = %172
  call void @llvm.lifetime.start.p0(i64 8, ptr %26) #7
  store i64 0, ptr %26, align 8, !tbaa !17
  br label %178

178:                                              ; preds = %198, %177
  %179 = load i64, ptr %26, align 8, !tbaa !17
  %180 = load ptr, ptr %11, align 8, !tbaa !19
  %181 = getelementptr inbounds nuw %struct.ssl_aead_ctx_st, ptr %180, i32 0, i32 3
  %182 = load i8, ptr %181, align 4, !tbaa !27
  %183 = zext i8 %182 to i64
  %184 = icmp ult i64 %179, %183
  br i1 %184, label %185, label %201

185:                                              ; preds = %178
  %186 = load ptr, ptr %11, align 8, !tbaa !19
  %187 = getelementptr inbounds nuw %struct.ssl_aead_ctx_st, ptr %186, i32 0, i32 2
  %188 = load i64, ptr %26, align 8, !tbaa !17
  %189 = getelementptr inbounds nuw [12 x i8], ptr %187, i64 0, i64 %188
  %190 = load i8, ptr %189, align 1, !tbaa !38
  %191 = zext i8 %190 to i32
  %192 = load i64, ptr %26, align 8, !tbaa !17
  %193 = getelementptr inbounds nuw [16 x i8], ptr %22, i64 0, i64 %192
  %194 = load i8, ptr %193, align 1, !tbaa !38
  %195 = zext i8 %194 to i32
  %196 = xor i32 %195, %191
  %197 = trunc i32 %196 to i8
  store i8 %197, ptr %193, align 1, !tbaa !38
  br label %198

198:                                              ; preds = %185
  %199 = load i64, ptr %26, align 8, !tbaa !17
  %200 = add i64 %199, 1
  store i64 %200, ptr %26, align 8, !tbaa !17
  br label %178, !llvm.loop !41

201:                                              ; preds = %178
  call void @llvm.lifetime.end.p0(i64 8, ptr %26) #7
  br label %202

202:                                              ; preds = %201, %172
  %203 = load ptr, ptr %11, align 8, !tbaa !19
  %204 = getelementptr inbounds nuw %struct.ssl_aead_ctx_st, ptr %203, i32 0, i32 1
  %205 = load ptr, ptr %12, align 8, !tbaa !15
  %206 = load ptr, ptr %13, align 8, !tbaa !36
  %207 = load i64, ptr %14, align 8, !tbaa !17
  %208 = getelementptr inbounds [16 x i8], ptr %22, i64 0, i64 0
  %209 = load i64, ptr %23, align 8, !tbaa !17
  %210 = load ptr, ptr %18, align 8, !tbaa !15
  %211 = load i64, ptr %19, align 8, !tbaa !17
  %212 = getelementptr inbounds [13 x i8], ptr %20, i64 0, i64 0
  %213 = load i64, ptr %21, align 8, !tbaa !17
  %214 = call i32 @EVP_AEAD_CTX_seal(ptr noundef %204, ptr noundef %205, ptr noundef %206, i64 noundef %207, ptr noundef %208, i64 noundef %209, ptr noundef %210, i64 noundef %211, ptr noundef %212, i64 noundef %213)
  %215 = icmp ne i32 %214, 0
  br i1 %215, label %217, label %216

216:                                              ; preds = %202
  store i32 0, ptr %10, align 4
  store i32 1, ptr %24, align 4
  br label %222

217:                                              ; preds = %202
  %218 = load i64, ptr %25, align 8, !tbaa !17
  %219 = load ptr, ptr %13, align 8, !tbaa !36
  %220 = load i64, ptr %219, align 8, !tbaa !17
  %221 = add i64 %220, %218
  store i64 %221, ptr %219, align 8, !tbaa !17
  store i32 1, ptr %10, align 4
  store i32 1, ptr %24, align 4
  br label %222

222:                                              ; preds = %217, %216, %141, %124
  call void @llvm.lifetime.end.p0(i64 8, ptr %25) #7
  br label %223

223:                                              ; preds = %222, %95
  call void @llvm.lifetime.end.p0(i64 8, ptr %23) #7
  call void @llvm.lifetime.end.p0(i64 16, ptr %22) #7
  call void @llvm.lifetime.end.p0(i64 8, ptr %21) #7
  call void @llvm.lifetime.end.p0(i64 13, ptr %20) #7
  br label %224

224:                                              ; preds = %223, %34, %33
  %225 = load i32, ptr %10, align 4
  ret i32 %225
}