; Function Attrs: nounwind uwtable
define hidden range(i32 0, 2) i32 @SSL_AEAD_CTX_seal(ptr noundef %0, ptr noundef %1, ptr noundef %2, i64 noundef %3, i8 noundef zeroext %4, i16 noundef zeroext %5, ptr noundef readonly captures(none) %6, ptr noundef %7, i64 noundef %8) local_unnamed_addr #0 {
  %10 = alloca [13 x i8], align 8
  %11 = alloca [16 x i8], align 16
  %12 = icmp eq ptr %0, null
  %.0.i.sroa.gep = getelementptr inbounds nuw i8, ptr %10, i64 9
  %.0.i.sroa.gep79 = getelementptr inbounds nuw i8, ptr %10, i64 11
  br i1 %12, label %13, label %17

13:                                               ; preds = %9
  %14 = icmp ugt i64 %8, %3
  br i1 %14, label %15, label %16

15:                                               ; preds = %13
  tail call void @ERR_put_error(i32 noundef 16, i32 noundef 0, i32 noundef 121, ptr noundef nonnull @.str, i32 noundef 244) #8
  br label %102

16:                                               ; preds = %13
  tail call void @llvm.memmove.p0.p0.i64(ptr align 1 %1, ptr align 1 %7, i64 %8, i1 false)
  store i64 %8, ptr %2, align 8, !tbaa !27
  br label %102

17:                                               ; preds = %9
  call void @llvm.lifetime.start.p0(i64 13, ptr nonnull %10) #8
  %.val = load i64, ptr %6, align 1
  store i64 %.val, ptr %10, align 8
  %18 = getelementptr inbounds nuw i8, ptr %10, i64 8
  store i8 %4, ptr %18, align 8, !tbaa !29
  %19 = getelementptr inbounds nuw i8, ptr %0, i64 41
  %20 = load i8, ptr %19, align 1, !tbaa !25
  %.not.i = icmp eq i8 %20, 0
  br i1 %.not.i, label %21, label %26

21:                                               ; preds = %17
  %22 = lshr i16 %5, 8
  %23 = trunc nuw i16 %22 to i8
  store i8 %23, ptr %.0.i.sroa.gep, align 1, !tbaa !29
  %24 = trunc i16 %5 to i8
  %25 = getelementptr inbounds nuw i8, ptr %10, i64 10
  store i8 %24, ptr %25, align 2, !tbaa !29
  br label %26

26:                                               ; preds = %21, %17
  %.0.i.sroa.phi = phi ptr [ %.0.i.sroa.gep, %17 ], [ %.0.i.sroa.gep79, %21 ]
  %.0.i = phi i64 [ 9, %17 ], [ 11, %21 ]
  %27 = getelementptr inbounds nuw i8, ptr %0, i64 40
  %28 = load i8, ptr %27, align 8, !tbaa !24
  %.not19.i = icmp eq i8 %28, 0
  br i1 %.not19.i, label %29, label %ssl_aead_ctx_get_ad.exit

29:                                               ; preds = %26
  %30 = lshr i64 %8, 8
  %31 = trunc i64 %30 to i8
  store i8 %31, ptr %.0.i.sroa.phi, align 1, !tbaa !29
  %32 = trunc i64 %8 to i8
  %33 = add nuw nsw i64 %.0.i, 2
  %34 = getelementptr inbounds nuw i8, ptr %.0.i.sroa.phi, i64 1
  store i8 %32, ptr %34, align 1, !tbaa !29
  br label %ssl_aead_ctx_get_ad.exit

ssl_aead_ctx_get_ad.exit:                         ; preds = %26, %29
  %.1.i = phi i64 [ %.0.i, %26 ], [ %33, %29 ]
  call void @llvm.lifetime.start.p0(i64 16, ptr nonnull %11) #8
  %35 = getelementptr inbounds nuw i8, ptr %0, i64 42
  %36 = load i8, ptr %35, align 2, !tbaa !21
  %.not = icmp eq i8 %36, 0
  br i1 %.not, label %45, label %37

37:                                               ; preds = %ssl_aead_ctx_get_ad.exit
  %38 = getelementptr inbounds nuw i8, ptr %0, i64 36
  %39 = load i8, ptr %38, align 4, !tbaa !16
  %40 = zext i8 %39 to i64
  %41 = getelementptr inbounds nuw i8, ptr %0, i64 37
  %42 = load i8, ptr %41, align 1, !tbaa !15
  %43 = zext i8 %42 to i64
  %44 = sub nsw i64 %40, %43
  call void @llvm.memset.p0.i64(ptr nonnull align 16 %11, i8 0, i64 %44, i1 false)
  br label %50

45:                                               ; preds = %ssl_aead_ctx_get_ad.exit
  %46 = getelementptr inbounds nuw i8, ptr %0, i64 24
  %47 = getelementptr inbounds nuw i8, ptr %0, i64 36
  %48 = load i8, ptr %47, align 4, !tbaa !16
  %49 = zext i8 %48 to i64
  call void @llvm.memcpy.p0.p0.i64(ptr nonnull align 16 %11, ptr nonnull align 8 %46, i64 %49, i1 false)
  br label %50

50:                                               ; preds = %45, %37
  %.064 = phi i64 [ %44, %37 ], [ %49, %45 ]
  %51 = getelementptr inbounds nuw i8, ptr %0, i64 39
  %52 = load i8, ptr %51, align 1, !tbaa !23
  %.not72 = icmp eq i8 %52, 0
  %53 = getelementptr inbounds nuw i8, ptr %11, i64 %.064
  %54 = getelementptr inbounds nuw i8, ptr %0, i64 37
  %55 = load i8, ptr %54, align 1, !tbaa !15
  %56 = zext i8 %55 to i64
  br i1 %.not72, label %59, label %57

57:                                               ; preds = %50
  %58 = call i32 @RAND_bytes(ptr noundef nonnull %53, i64 noundef %56) #8
  %.not73 = icmp eq i32 %58, 0
  br i1 %.not73, label %101, label %._crit_edge

._crit_edge:                                      ; preds = %57
  %.pre = load i8, ptr %54, align 1, !tbaa !15
  %.pre82 = zext i8 %.pre to i64
  br label %60

59:                                               ; preds = %50
  call void @llvm.memcpy.p0.p0.i64(ptr nonnull align 1 %53, ptr nonnull align 1 %6, i64 %56, i1 false)
  br label %60

60:                                               ; preds = %._crit_edge, %59
  %.pre-phi = phi i64 [ %.pre82, %._crit_edge ], [ %56, %59 ]
  %61 = getelementptr inbounds nuw i8, ptr %0, i64 37
  %62 = add nsw i64 %.064, %.pre-phi
  %63 = getelementptr inbounds nuw i8, ptr %0, i64 38
  %64 = load i8, ptr %63, align 2, !tbaa !22
  %.not74 = icmp eq i8 %64, 0
  br i1 %.not74, label %83, label %65

65:                                               ; preds = %60
  %66 = icmp ult i64 %3, %.pre-phi
  br i1 %66, label %67, label %68

67:                                               ; preds = %65
  call void @ERR_put_error(i32 noundef 16, i32 noundef 0, i32 noundef 121, ptr noundef nonnull @.str, i32 noundef 288) #8
  br label %101

68:                                               ; preds = %65
  %69 = getelementptr inbounds nuw i8, ptr %7, i64 %8
  %70 = icmp ult ptr %1, %69
  %71 = getelementptr inbounds nuw i8, ptr %1, i64 %.pre-phi
  %72 = icmp ult ptr %7, %71
  %or.cond = select i1 %70, i1 %72, i1 false
  br i1 %or.cond, label %73, label %74

73:                                               ; preds = %68
  call void @ERR_put_error(i32 noundef 16, i32 noundef 0, i32 noundef 189, ptr noundef nonnull @.str, i32 noundef 292) #8
  br label %101

74:                                               ; preds = %68
  %75 = getelementptr inbounds nuw i8, ptr %0, i64 36
  %76 = load i8, ptr %75, align 4, !tbaa !16
  %77 = zext i8 %76 to i64
  %78 = getelementptr inbounds nuw i8, ptr %11, i64 %77
  call void @llvm.memcpy.p0.p0.i64(ptr align 1 %1, ptr nonnull align 1 %78, i64 %.pre-phi, i1 false)
  %79 = load i8, ptr %61, align 1, !tbaa !15
  %80 = zext i8 %79 to i64
  %81 = getelementptr inbounds nuw i8, ptr %1, i64 %80
  %82 = sub i64 %3, %80
  br label %83

83:                                               ; preds = %74, %60
  %.067 = phi i64 [ %82, %74 ], [ %3, %60 ]
  %.066 = phi ptr [ %81, %74 ], [ %1, %60 ]
  %.063 = phi i64 [ %80, %74 ], [ 0, %60 ]
  %84 = load i8, ptr %35, align 2, !tbaa !21
  %.not75 = icmp eq i8 %84, 0
  br i1 %.not75, label %.loopexit, label %.preheader

.preheader:                                       ; preds = %83
  %85 = getelementptr inbounds nuw i8, ptr %0, i64 36
  %86 = load i8, ptr %85, align 4, !tbaa !16
  %87 = zext i8 %86 to i64
  %.not81 = icmp eq i8 %86, 0
  br i1 %.not81, label %.loopexit, label %.lr.ph

.lr.ph:                                           ; preds = %.preheader
  %88 = getelementptr inbounds nuw i8, ptr %0, i64 24
  br label %89

89:                                               ; preds = %.lr.ph, %89
  %.080 = phi i64 [ 0, %.lr.ph ], [ %95, %89 ]
  %90 = getelementptr inbounds nuw [12 x i8], ptr %88, i64 0, i64 %.080
  %91 = load i8, ptr %90, align 1, !tbaa !29
  %92 = getelementptr inbounds nuw [16 x i8], ptr %11, i64 0, i64 %.080
  %93 = load i8, ptr %92, align 1, !tbaa !29
  %94 = xor i8 %93, %91
  store i8 %94, ptr %92, align 1, !tbaa !29
  %95 = add nuw nsw i64 %.080, 1
  %exitcond.not = icmp eq i64 %95, %87
  br i1 %exitcond.not, label %.loopexit, label %89, !llvm.loop !32

.loopexit:                                        ; preds = %89, %.preheader, %83
  %96 = getelementptr inbounds nuw i8, ptr %0, i64 8
  %97 = call i32 @EVP_AEAD_CTX_seal(ptr noundef nonnull %96, ptr noundef %.066, ptr noundef %2, i64 noundef %.067, ptr noundef nonnull %11, i64 noundef %62, ptr noundef %7, i64 noundef %8, ptr noundef nonnull %10, i64 noundef %.1.i) #8
  %.not76 = icmp eq i32 %97, 0
  br i1 %.not76, label %101, label %98

98:                                               ; preds = %.loopexit
  %99 = load i64, ptr %2, align 8, !tbaa !27
  %100 = add i64 %99, %.063
  store i64 %100, ptr %2, align 8, !tbaa !27
  br label %101

101:                                              ; preds = %67, %73, %98, %.loopexit, %57
  %.1 = phi i32 [ 0, %57 ], [ 0, %67 ], [ 0, %73 ], [ 1, %98 ], [ 0, %.loopexit ]
  call void @llvm.lifetime.end.p0(i64 16, ptr nonnull %11) #8
  call void @llvm.lifetime.end.p0(i64 13, ptr nonnull %10) #8
  br label %102

102:                                              ; preds = %101, %16, %15
  %.065 = phi i32 [ 0, %15 ], [ 1, %16 ], [ %.1, %101 ]
  ret i32 %.065
}